target datalayout = "e-m:e-p270:32:32-p271:32:32-p272:64:64-i64:64-i128:128-f80:128-n8:16:32:64-S128"
target triple = "x86_64-pc-linux-gnu"

%struct.lv_style_t = type { ptr, i32, i8 }

@scale3_section1_main_style = internal global %struct.lv_style_t zeroinitializer, align 8
@scale3_section1_indicator_style = internal global %struct.lv_style_t zeroinitializer, align 8
@scale3_section1_tick_style = internal global %struct.lv_style_t zeroinitializer, align 8
@scale3_section2_main_style = internal global %struct.lv_style_t zeroinitializer, align 8
@scale3_section2_indicator_style = internal global %struct.lv_style_t zeroinitializer, align 8
@scale3_section2_tick_style = internal global %struct.lv_style_t zeroinitializer, align 8
@scale3_section3_main_style = internal global %struct.lv_style_t zeroinitializer, align 8
@scale3_section3_indicator_style = internal global %struct.lv_style_t zeroinitializer, align 8
@scale3_section3_tick_style = internal global %struct.lv_style_t zeroinitializer, align 8

; Function Attrs: nounwind uwtable
define internal void @scale3_delete_event_cb(ptr noundef %0) #0 {
  %2 = alloca ptr, align 8
  %3 = alloca i32, align 4
  store ptr %0, ptr %2, align 8, !tbaa !7
  call void @llvm.lifetime.start.p0(i64 4, ptr %3) #5
  %4 = load ptr, ptr %2, align 8, !tbaa !7
  %5 = call i32 @lv_event_get_code(ptr noundef %4)
  store i32 %5, ptr %3, align 4, !tbaa !3
  %6 = load i32, ptr %3, align 4, !tbaa !3
  %7 = icmp eq i32 %6, 41
  br i1 %7, label %8, label %9

8:                                                ; preds = %1
  call void @lv_style_reset(ptr noundef @scale3_section1_main_style)
  call void @lv_style_reset(ptr noundef @scale3_section1_indicator_style)
  call void @lv_style_reset(ptr noundef @scale3_section1_tick_style)
  call void @lv_style_reset(ptr noundef @scale3_section2_main_style)
  call void @lv_style_reset(ptr noundef @scale3_section2_indicator_style)
  call void @lv_style_reset(ptr noundef @scale3_section2_tick_style)
  call void @lv_style_reset(ptr noundef @scale3_section3_main_style)
  call void @lv_style_reset(ptr noundef @scale3_section3_indicator_style)
  call void @lv_style_reset(ptr noundef @scale3_section3_tick_style)
  br label %9

9:                                                ; preds = %8, %1
  call void @llvm.lifetime.end.p0(i64 4, ptr %3) #5
  ret void
}