; Function Attrs: nounwind uwtable
define internal void @scale3_delete_event_cb(ptr noundef %0) #0 {
  %2 = tail call i32 @lv_event_get_code(ptr noundef %0) #5
  %3 = icmp eq i32 %2, 41
  br i1 %3, label %4, label %5

4:                                                ; preds = %1
  tail call void @lv_style_reset(ptr noundef nonnull @scale3_section1_main_style) #5
  tail call void @lv_style_reset(ptr noundef nonnull @scale3_section1_indicator_style) #5
  tail call void @lv_style_reset(ptr noundef nonnull @scale3_section1_tick_style) #5
  tail call void @lv_style_reset(ptr noundef nonnull @scale3_section2_main_style) #5
  tail call void @lv_style_reset(ptr noundef nonnull @scale3_section2_indicator_style) #5
  tail call void @lv_style_reset(ptr noundef nonnull @scale3_section2_tick_style) #5
  tail call void @lv_style_reset(ptr noundef nonnull @scale3_section3_main_style) #5
  tail call void @lv_style_reset(ptr noundef nonnull @scale3_section3_indicator_style) #5
  tail call void @lv_style_reset(ptr noundef nonnull @scale3_section3_tick_style) #5
  br label %5

5:                                                ; preds = %4, %1
  ret void
}